(dp1
S'author'
p2
S'Roman Wesolowski'
p3
sS'dirname'
p4
S'T1_segmentation'
p5
sS'name'
p6
S'T1 Segmentation'
p7
sS'description'
p8
S'Module uses T1 maps and Goodness-of-fit maps (if available) to help extract correct T1 values of complex ROIs.'
p9
s.