(dp1
S'author'
p2
S'Roman Wesolowski'
p3
sS'dirname'
p4
S'Segmentation'
p5
sS'name'
p6
S'Image Segmentation'
p7
sS'description'
p8
S'Module uses difference in contrast to segment and also Goodness-of-fit maps (if available).'
p9
s.